target datalayout = "e-m:e-p270:32:32-p271:32:32-p272:64:64-i64:64-i128:128-f80:128-n8:16:32:64-S128"
target triple = "x86_64-pc-linux-gnu"

%class.SimpleCompactHashtable = type { ptr, i32, i32, ptr, ptr }
%class.DumpTimeLambdaProxyClassDictionary = type { %class.ResourceHashtable.base.17, i32 }
%class.ResourceHashtable.base.17 = type { %class.ResourceHashtableBase.base.16 }
%class.ResourceHashtableBase.base.16 = type <{ %class.FixedResourceHashtableStorage.15, i32 }>
%class.FixedResourceHashtableStorage.15 = type { [137 x ptr] }
%class.ResourceHashtableBase.14 = type <{ %class.FixedResourceHashtableStorage.15, i32, [4 x i8] }>
%class.ResourceHashtableNode.80 = type { i32, %class.LambdaProxyClassKey, %class.DumpTimeLambdaProxyClassInfo, ptr }
%class.LambdaProxyClassKey = type { ptr, ptr, ptr, ptr, ptr, ptr }
%class.DumpTimeLambdaProxyClassInfo = type { ptr }
%class.CompactHashtableStats = type { i32, i32, i32, i32 }
%class.CompactHashtableWriter = type { i32, i32, i32, i32, i32, ptr, ptr, ptr, ptr }
%class.CopyLambdaProxyClassInfoToArchive = type { ptr, ptr }
%class.anon.85 = type { ptr }

@_ZN22SystemDictionaryShared39_dumptime_lambda_proxy_class_dictionaryE = hidden global ptr null, align 8
@.str.53 = private unnamed_addr constant [30 x i8] c"lambda proxy class dictionary\00", align 1
@_ZN14ArchiveBuilder8_currentE = external global ptr, align 8

; Function Attrs: mustprogress nounwind uwtable
define linkonce_odr hidden noundef i32 @_ZNK29FixedResourceHashtableStorageILj137E19LambdaProxyClassKey28DumpTimeLambdaProxyClassInfoE10table_sizeEv(ptr noundef nonnull align 8 dereferenceable(1096) %0) #1 comdat align 2 {
  %2 = alloca ptr, align 8
  store ptr %0, ptr %2, align 8
  ret i32 137
}

; Function Attrs: mustprogress nounwind uwtable
define linkonce_odr hidden noundef ptr @_ZNK29FixedResourceHashtableStorageILj137E19LambdaProxyClassKey28DumpTimeLambdaProxyClassInfoE5tableEv(ptr noundef nonnull align 8 dereferenceable(1096) %0) #1 comdat align 2 {
  %2 = alloca ptr, align 8
  store ptr %0, ptr %2, align 8
  %3 = load ptr, ptr %2, align 8
  %4 = getelementptr inbounds %class.FixedResourceHashtableStorage.15, ptr %3, i32 0, i32 0
  %5 = getelementptr inbounds [137 x ptr], ptr %4, i64 0, i64 0
  ret ptr %5
}

; Function Attrs: mustprogress nounwind uwtable
define linkonce_odr hidden noundef zeroext i1 @_ZZNK21ResourceHashtableBaseI29FixedResourceHashtableStorageILj137E19LambdaProxyClassKey28DumpTimeLambdaProxyClassInfoES1_S2_LN6AnyObj15allocation_typeE2EL8MEMFLAGS13EXadL_ZNS1_13DUMPTIME_HASHERKS1_EEXadL_ZNS1_15DUMPTIME_EQUALSES8_S8_EEE7iterateI33CopyLambdaProxyClassInfoToArchiveEEvPT_ENKUlRS1_RS2_E_clESE_SF_(ptr noundef nonnull align 8 dereferenceable(8) %0, ptr noundef nonnull align 8 dereferenceable(48) %1, ptr noundef nonnull align 8 dereferenceable(8) %2) #1 comdat align 2 {
  %4 = alloca ptr, align 8
  %5 = alloca ptr, align 8
  %6 = alloca ptr, align 8
  store ptr %0, ptr %4, align 8
  store ptr %1, ptr %5, align 8
  store ptr %2, ptr %6, align 8
  %7 = load ptr, ptr %4, align 8
  %8 = getelementptr inbounds %class.anon.85, ptr %7, i32 0, i32 0
  %9 = load ptr, ptr %8, align 8
  %10 = load ptr, ptr %9, align 8
  %11 = load ptr, ptr %5, align 8
  %12 = load ptr, ptr %6, align 8
  %13 = call noundef zeroext i1 @_ZN33CopyLambdaProxyClassInfoToArchive8do_entryER19LambdaProxyClassKeyR28DumpTimeLambdaProxyClassInfo(ptr noundef nonnull align 8 dereferenceable(16) %10, ptr noundef nonnull align 8 dereferenceable(48) %11, ptr noundef nonnull align 8 dereferenceable(8) %12)
  ret i1 %13
}

; Function Attrs: mustprogress nounwind uwtable
define linkonce_odr hidden noundef ptr @_ZNK21ResourceHashtableBaseI29FixedResourceHashtableStorageILj137E19LambdaProxyClassKey28DumpTimeLambdaProxyClassInfoES1_S2_LN6AnyObj15allocation_typeE2EL8MEMFLAGS13EXadL_ZNS1_13DUMPTIME_HASHERKS1_EEXadL_ZNS1_15DUMPTIME_EQUALSES8_S8_EEE9bucket_atEj(ptr noundef nonnull align 8 dereferenceable(1100) %0, i32 noundef %1) #1 comdat align 2 {
  %3 = alloca ptr, align 8
  %4 = alloca i32, align 4
  %5 = alloca ptr, align 8
  store ptr %0, ptr %3, align 8
  store i32 %1, ptr %4, align 4
  %6 = load ptr, ptr %3, align 8
  %7 = call noundef ptr @_ZNK21ResourceHashtableBaseI29FixedResourceHashtableStorageILj137E19LambdaProxyClassKey28DumpTimeLambdaProxyClassInfoES1_S2_LN6AnyObj15allocation_typeE2EL8MEMFLAGS13EXadL_ZNS1_13DUMPTIME_HASHERKS1_EEXadL_ZNS1_15DUMPTIME_EQUALSES8_S8_EEE5tableEv(ptr noundef nonnull align 8 dereferenceable(1100) %6)
  store ptr %7, ptr %5, align 8
  %8 = load ptr, ptr %5, align 8
  %9 = load i32, ptr %4, align 4
  %10 = zext i32 %9 to i64
  %11 = getelementptr inbounds ptr, ptr %8, i64 %10
  ret ptr %11
}

; Function Attrs: mustprogress nounwind uwtable
define linkonce_odr hidden noundef i32 @_ZNK21ResourceHashtableBaseI29FixedResourceHashtableStorageILj137E19LambdaProxyClassKey28DumpTimeLambdaProxyClassInfoES1_S2_LN6AnyObj15allocation_typeE2EL8MEMFLAGS13EXadL_ZNS1_13DUMPTIME_HASHERKS1_EEXadL_ZNS1_15DUMPTIME_EQUALSES8_S8_EEE10table_sizeEv(ptr noundef nonnull align 8 dereferenceable(1100) %0) #1 comdat align 2 {
  %2 = alloca ptr, align 8
  store ptr %0, ptr %2, align 8
  %3 = load ptr, ptr %2, align 8
  %4 = call noundef i32 @_ZNK29FixedResourceHashtableStorageILj137E19LambdaProxyClassKey28DumpTimeLambdaProxyClassInfoE10table_sizeEv(ptr noundef nonnull align 8 dereferenceable(1096) %3)
  ret i32 %4
}

; Function Attrs: mustprogress nounwind uwtable
define linkonce_odr hidden noundef ptr @_ZNK21ResourceHashtableBaseI29FixedResourceHashtableStorageILj137E19LambdaProxyClassKey28DumpTimeLambdaProxyClassInfoES1_S2_LN6AnyObj15allocation_typeE2EL8MEMFLAGS13EXadL_ZNS1_13DUMPTIME_HASHERKS1_EEXadL_ZNS1_15DUMPTIME_EQUALSES8_S8_EEE5tableEv(ptr noundef nonnull align 8 dereferenceable(1100) %0) #1 comdat align 2 {
  %2 = alloca ptr, align 8
  store ptr %0, ptr %2, align 8
  %3 = load ptr, ptr %2, align 8
  %4 = call noundef ptr @_ZNK29FixedResourceHashtableStorageILj137E19LambdaProxyClassKey28DumpTimeLambdaProxyClassInfoE5tableEv(ptr noundef nonnull align 8 dereferenceable(1096) %3)
  ret ptr %4
}

; Function Attrs: mustprogress nounwind uwtable
define linkonce_odr hidden void @_ZNK21ResourceHashtableBaseI29FixedResourceHashtableStorageILj137E19LambdaProxyClassKey28DumpTimeLambdaProxyClassInfoES1_S2_LN6AnyObj15allocation_typeE2EL8MEMFLAGS13EXadL_ZNS1_13DUMPTIME_HASHERKS1_EEXadL_ZNS1_15DUMPTIME_EQUALSES8_S8_EEE7iterateIZNKS9_7iterateI33CopyLambdaProxyClassInfoToArchiveEEvPT_EUlRS1_RS2_E_EEvSD_(ptr noundef nonnull align 8 dereferenceable(1100) %0, ptr %1) #1 comdat align 2 {
  %3 = alloca %class.anon.85, align 8
  %4 = alloca ptr, align 8
  %5 = alloca ptr, align 8
  %6 = alloca i32, align 4
  %7 = alloca i32, align 4
  %8 = alloca ptr, align 8
  %9 = alloca i8, align 1
  %10 = getelementptr inbounds %class.anon.85, ptr %3, i32 0, i32 0
  store ptr %1, ptr %10, align 8
  store ptr %0, ptr %4, align 8
  %11 = load ptr, ptr %4, align 8
  %12 = call noundef ptr @_ZNK21ResourceHashtableBaseI29FixedResourceHashtableStorageILj137E19LambdaProxyClassKey28DumpTimeLambdaProxyClassInfoES1_S2_LN6AnyObj15allocation_typeE2EL8MEMFLAGS13EXadL_ZNS1_13DUMPTIME_HASHERKS1_EEXadL_ZNS1_15DUMPTIME_EQUALSES8_S8_EEE5tableEv(ptr noundef nonnull align 8 dereferenceable(1100) %11)
  store ptr %12, ptr %5, align 8
  %13 = call noundef i32 @_ZNK21ResourceHashtableBaseI29FixedResourceHashtableStorageILj137E19LambdaProxyClassKey28DumpTimeLambdaProxyClassInfoES1_S2_LN6AnyObj15allocation_typeE2EL8MEMFLAGS13EXadL_ZNS1_13DUMPTIME_HASHERKS1_EEXadL_ZNS1_15DUMPTIME_EQUALSES8_S8_EEE10table_sizeEv(ptr noundef nonnull align 8 dereferenceable(1100) %11)
  store i32 %13, ptr %6, align 4
  %14 = getelementptr inbounds %class.ResourceHashtableBase.14, ptr %11, i32 0, i32 1
  %15 = load i32, ptr %14, align 8
  store i32 %15, ptr %7, align 4
  br label %16

16:                                               ; preds = %48, %2
  %17 = load i32, ptr %7, align 4
  %18 = icmp sgt i32 %17, 0
  br i1 %18, label %19, label %24

19:                                               ; preds = %16
  %20 = load ptr, ptr %5, align 8
  %21 = load i32, ptr %6, align 4
  %22 = call noundef ptr @_ZNK21ResourceHashtableBaseI29FixedResourceHashtableStorageILj137E19LambdaProxyClassKey28DumpTimeLambdaProxyClassInfoES1_S2_LN6AnyObj15allocation_typeE2EL8MEMFLAGS13EXadL_ZNS1_13DUMPTIME_HASHERKS1_EEXadL_ZNS1_15DUMPTIME_EQUALSES8_S8_EEE9bucket_atEj(ptr noundef nonnull align 8 dereferenceable(1100) %11, i32 noundef %21)
  %23 = icmp ult ptr %20, %22
  br label %24

24:                                               ; preds = %19, %16
  %25 = phi i1 [ false, %16 ], [ %23, %19 ]
  br i1 %25, label %26, label %51

26:                                               ; preds = %24
  %27 = load ptr, ptr %5, align 8
  %28 = load ptr, ptr %27, align 8
  store ptr %28, ptr %8, align 8
  br label %29

29:                                               ; preds = %42, %26
  %30 = load ptr, ptr %8, align 8
  %31 = icmp ne ptr %30, null
  br i1 %31, label %32, label %48

32:                                               ; preds = %29
  %33 = load ptr, ptr %8, align 8
  %34 = getelementptr inbounds %class.ResourceHashtableNode.80, ptr %33, i32 0, i32 1
  %35 = load ptr, ptr %8, align 8
  %36 = getelementptr inbounds %class.ResourceHashtableNode.80, ptr %35, i32 0, i32 2
  %37 = call noundef zeroext i1 @_ZZNK21ResourceHashtableBaseI29FixedResourceHashtableStorageILj137E19LambdaProxyClassKey28DumpTimeLambdaProxyClassInfoES1_S2_LN6AnyObj15allocation_typeE2EL8MEMFLAGS13EXadL_ZNS1_13DUMPTIME_HASHERKS1_EEXadL_ZNS1_15DUMPTIME_EQUALSES8_S8_EEE7iterateI33CopyLambdaProxyClassInfoToArchiveEEvPT_ENKUlRS1_RS2_E_clESE_SF_(ptr noundef nonnull align 8 dereferenceable(8) %3, ptr noundef nonnull align 8 dereferenceable(48) %34, ptr noundef nonnull align 8 dereferenceable(8) %36)
  %38 = zext i1 %37 to i8
  store i8 %38, ptr %9, align 1
  %39 = load i8, ptr %9, align 1
  %40 = trunc i8 %39 to i1
  br i1 %40, label %42, label %41

41:                                               ; preds = %32
  br label %51

42:                                               ; preds = %32
  %43 = load ptr, ptr %8, align 8
  %44 = getelementptr inbounds %class.ResourceHashtableNode.80, ptr %43, i32 0, i32 3
  %45 = load ptr, ptr %44, align 8
  store ptr %45, ptr %8, align 8
  %46 = load i32, ptr %7, align 4
  %47 = add nsw i32 %46, -1
  store i32 %47, ptr %7, align 4
  br label %29, !llvm.loop !51

48:                                               ; preds = %29
  %49 = load ptr, ptr %5, align 8
  %50 = getelementptr inbounds ptr, ptr %49, i32 1
  store ptr %50, ptr %5, align 8
  br label %16, !llvm.loop !52

51:                                               ; preds = %41, %24
  ret void
}

; Function Attrs: mustprogress nounwind uwtable
define linkonce_odr hidden noundef ptr @_ZN14ArchiveBuilder7currentEv() #1 comdat align 2 {
  %1 = load ptr, ptr @_ZN14ArchiveBuilder8_currentE, align 8
  ret ptr %1
}

; Function Attrs: mustprogress nounwind uwtable
define linkonce_odr hidden void @_ZNK21ResourceHashtableBaseI29FixedResourceHashtableStorageILj137E19LambdaProxyClassKey28DumpTimeLambdaProxyClassInfoES1_S2_LN6AnyObj15allocation_typeE2EL8MEMFLAGS13EXadL_ZNS1_13DUMPTIME_HASHERKS1_EEXadL_ZNS1_15DUMPTIME_EQUALSES8_S8_EEE7iterateI33CopyLambdaProxyClassInfoToArchiveEEvPT_(ptr noundef nonnull align 8 dereferenceable(1100) %0, ptr noundef %1) #1 comdat align 2 {
  %3 = alloca ptr, align 8
  %4 = alloca ptr, align 8
  %5 = alloca %class.anon.85, align 8
  %6 = alloca %class.anon.85, align 8
  store ptr %0, ptr %3, align 8
  store ptr %1, ptr %4, align 8
  %7 = load ptr, ptr %3, align 8
  %8 = getelementptr inbounds %class.anon.85, ptr %5, i32 0, i32 0
  store ptr %4, ptr %8, align 8
  call void @llvm.memcpy.p0.p0.i64(ptr align 8 %6, ptr align 8 %5, i64 8, i1 false)
  %9 = getelementptr inbounds %class.anon.85, ptr %6, i32 0, i32 0
  %10 = load ptr, ptr %9, align 8
  call void @_ZNK21ResourceHashtableBaseI29FixedResourceHashtableStorageILj137E19LambdaProxyClassKey28DumpTimeLambdaProxyClassInfoES1_S2_LN6AnyObj15allocation_typeE2EL8MEMFLAGS13EXadL_ZNS1_13DUMPTIME_HASHERKS1_EEXadL_ZNS1_15DUMPTIME_EQUALSES8_S8_EEE7iterateIZNKS9_7iterateI33CopyLambdaProxyClassInfoToArchiveEEvPT_EUlRS1_RS2_E_EEvSD_(ptr noundef nonnull align 8 dereferenceable(1100) %7, ptr %10)
  ret void
}

; Function Attrs: mustprogress nounwind uwtable
define linkonce_odr hidden void @_ZN33CopyLambdaProxyClassInfoToArchiveC2EP22CompactHashtableWriter(ptr noundef nonnull align 8 dereferenceable(16) %0, ptr noundef %1) unnamed_addr #1 comdat align 2 {
  %3 = alloca ptr, align 8
  %4 = alloca ptr, align 8
  store ptr %0, ptr %3, align 8
  store ptr %1, ptr %4, align 8
  %5 = load ptr, ptr %3, align 8
  %6 = getelementptr inbounds %class.CopyLambdaProxyClassInfoToArchive, ptr %5, i32 0, i32 0
  %7 = load ptr, ptr %4, align 8
  store ptr %7, ptr %6, align 8
  %8 = getelementptr inbounds %class.CopyLambdaProxyClassInfoToArchive, ptr %5, i32 0, i32 1
  %9 = call noundef ptr @_ZN14ArchiveBuilder7currentEv()
  store ptr %9, ptr %8, align 8
  ret void
}

; Function Attrs: mustprogress nounwind uwtable
define linkonce_odr hidden void @_ZN22SimpleCompactHashtable5resetEv(ptr noundef nonnull align 8 dereferenceable(32) %0) #1 comdat align 2 {
  %2 = alloca ptr, align 8
  store ptr %0, ptr %2, align 8
  %3 = load ptr, ptr %2, align 8
  %4 = getelementptr inbounds %class.SimpleCompactHashtable, ptr %3, i32 0, i32 0
  store ptr null, ptr %4, align 8
  %5 = getelementptr inbounds %class.SimpleCompactHashtable, ptr %3, i32 0, i32 1
  store i32 0, ptr %5, align 8
  %6 = getelementptr inbounds %class.SimpleCompactHashtable, ptr %3, i32 0, i32 2
  store i32 0, ptr %6, align 4
  %7 = getelementptr inbounds %class.SimpleCompactHashtable, ptr %3, i32 0, i32 3
  store ptr null, ptr %7, align 8
  %8 = getelementptr inbounds %class.SimpleCompactHashtable, ptr %3, i32 0, i32 4
  store ptr null, ptr %8, align 8
  ret void
}

; Function Attrs: mustprogress nounwind uwtable
define linkonce_odr hidden void @_ZN21CompactHashtableStatsC2Ev(ptr noundef nonnull align 4 dereferenceable(16) %0) unnamed_addr #1 comdat align 2 {
  %2 = alloca ptr, align 8
  store ptr %0, ptr %2, align 8
  %3 = load ptr, ptr %2, align 8
  %4 = getelementptr inbounds %class.CompactHashtableStats, ptr %3, i32 0, i32 0
  store i32 0, ptr %4, align 4
  %5 = getelementptr inbounds %class.CompactHashtableStats, ptr %3, i32 0, i32 1
  store i32 0, ptr %5, align 4
  %6 = getelementptr inbounds %class.CompactHashtableStats, ptr %3, i32 0, i32 2
  store i32 0, ptr %6, align 4
  %7 = getelementptr inbounds %class.CompactHashtableStats, ptr %3, i32 0, i32 3
  store i32 0, ptr %7, align 4
  ret void
}

; Function Attrs: mustprogress nounwind uwtable
define hidden void @_ZN22SystemDictionaryShared35write_lambda_proxy_class_dictionaryEP26LambdaProxyClassDictionary(ptr noundef %0) #1 align 2 {
  %2 = alloca ptr, align 8
  %3 = alloca %class.CompactHashtableStats, align 4
  %4 = alloca %class.CompactHashtableWriter, align 8
  %5 = alloca %class.CopyLambdaProxyClassInfoToArchive, align 8
  store ptr %0, ptr %2, align 8
  call void @_ZN21CompactHashtableStatsC2Ev(ptr noundef nonnull align 4 dereferenceable(16) %3)
  %6 = load ptr, ptr %2, align 8
  call void @_ZN22SimpleCompactHashtable5resetEv(ptr noundef nonnull align 8 dereferenceable(32) %6)
  %7 = load ptr, ptr @_ZN22SystemDictionaryShared39_dumptime_lambda_proxy_class_dictionaryE, align 8
  %8 = getelementptr inbounds %class.DumpTimeLambdaProxyClassDictionary, ptr %7, i32 0, i32 1
  %9 = load i32, ptr %8, align 4
  call void @_ZN22CompactHashtableWriterC1EiP21CompactHashtableStats(ptr noundef nonnull align 8 dereferenceable(56) %4, i32 noundef %9, ptr noundef %3)
  call void @_ZN33CopyLambdaProxyClassInfoToArchiveC2EP22CompactHashtableWriter(ptr noundef nonnull align 8 dereferenceable(16) %5, ptr noundef %4)
  %10 = load ptr, ptr @_ZN22SystemDictionaryShared39_dumptime_lambda_proxy_class_dictionaryE, align 8
  call void @_ZNK21ResourceHashtableBaseI29FixedResourceHashtableStorageILj137E19LambdaProxyClassKey28DumpTimeLambdaProxyClassInfoES1_S2_LN6AnyObj15allocation_typeE2EL8MEMFLAGS13EXadL_ZNS1_13DUMPTIME_HASHERKS1_EEXadL_ZNS1_15DUMPTIME_EQUALSES8_S8_EEE7iterateI33CopyLambdaProxyClassInfoToArchiveEEvPT_(ptr noundef nonnull align 8 dereferenceable(1100) %10, ptr noundef %5)
  %11 = load ptr, ptr %2, align 8
  call void @_ZN22CompactHashtableWriter4dumpEP22SimpleCompactHashtablePKc(ptr noundef nonnull align 8 dereferenceable(56) %4, ptr noundef %11, ptr noundef @.str.53)
  call void @_ZN22CompactHashtableWriterD1Ev(ptr noundef nonnull align 8 dereferenceable(56) %4) #11
  ret void
}