; Function Attrs: mustprogress nounwind uwtable
define hidden void @_ZN22SystemDictionaryShared35write_lambda_proxy_class_dictionaryEP26LambdaProxyClassDictionary(ptr noundef %0) local_unnamed_addr #0 align 2 {
  %2 = alloca %class.CompactHashtableStats, align 4
  %3 = alloca %class.CompactHashtableWriter, align 8
  %4 = alloca %class.CopyLambdaProxyClassInfoToArchive, align 8
  call void @llvm.memset.p0.i64(ptr noundef nonnull align 4 dereferenceable(16) %2, i8 0, i64 16, i1 false)
  tail call void @llvm.memset.p0.i64(ptr noundef nonnull align 8 dereferenceable(32) %0, i8 0, i64 32, i1 false)
  %5 = load ptr, ptr @_ZN22SystemDictionaryShared39_dumptime_lambda_proxy_class_dictionaryE, align 8
  %6 = getelementptr inbounds i8, ptr %5, i64 1100
  %7 = load i32, ptr %6, align 4
  call void @_ZN22CompactHashtableWriterC1EiP21CompactHashtableStats(ptr noundef nonnull align 8 dereferenceable(56) %3, i32 noundef %7, ptr noundef nonnull %2) #18
  store ptr %3, ptr %4, align 8
  %8 = getelementptr inbounds i8, ptr %4, i64 8
  %9 = load ptr, ptr @_ZN14ArchiveBuilder8_currentE, align 8
  store ptr %9, ptr %8, align 8
  %10 = load ptr, ptr @_ZN22SystemDictionaryShared39_dumptime_lambda_proxy_class_dictionaryE, align 8
  %11 = getelementptr inbounds i8, ptr %10, i64 1096
  %12 = load i32, ptr %11, align 8
  %13 = icmp sgt i32 %12, 0
  br i1 %13, label %.preheader.i.i, label %_ZNK21ResourceHashtableBaseI29FixedResourceHashtableStorageILj137E19LambdaProxyClassKey28DumpTimeLambdaProxyClassInfoES1_S2_LN6AnyObj15allocation_typeE2EL8MEMFLAGS13EXadL_ZNS1_13DUMPTIME_HASHERKS1_EEXadL_ZNS1_15DUMPTIME_EQUALSES8_S8_EEE7iterateI33CopyLambdaProxyClassInfoToArchiveEEvPT_.exit

.preheader.i.i:                                   ; preds = %1, %._crit_edge.i.i
  %.0.idx20.i.i = phi i64 [ %.0.add.i.i, %._crit_edge.i.i ], [ 0, %1 ]
  %.01219.i.i = phi i32 [ %.1.lcssa.i.i, %._crit_edge.i.i ], [ %12, %1 ]
  %.0.ptr21.i.i = getelementptr inbounds i8, ptr %10, i64 %.0.idx20.i.i
  %.01115.i.i = load ptr, ptr %.0.ptr21.i.i, align 8
  %.not16.i.i = icmp eq ptr %.01115.i.i, null
  br i1 %.not16.i.i, label %._crit_edge.i.i, label %.lr.ph.i.i

.lr.ph.i.i:                                       ; preds = %.preheader.i.i, %17
  %.01118.i.i = phi ptr [ %.011.i.i, %17 ], [ %.01115.i.i, %.preheader.i.i ]
  %.117.i.i = phi i32 [ %19, %17 ], [ %.01219.i.i, %.preheader.i.i ]
  %14 = getelementptr inbounds i8, ptr %.01118.i.i, i64 8
  %15 = getelementptr inbounds i8, ptr %.01118.i.i, i64 56
  %16 = call noundef zeroext i1 @_ZN33CopyLambdaProxyClassInfoToArchive8do_entryER19LambdaProxyClassKeyR28DumpTimeLambdaProxyClassInfo(ptr noundef nonnull align 8 dereferenceable(16) %4, ptr noundef nonnull align 8 dereferenceable(48) %14, ptr noundef nonnull align 8 dereferenceable(8) %15)
  br i1 %16, label %17, label %_ZNK21ResourceHashtableBaseI29FixedResourceHashtableStorageILj137E19LambdaProxyClassKey28DumpTimeLambdaProxyClassInfoES1_S2_LN6AnyObj15allocation_typeE2EL8MEMFLAGS13EXadL_ZNS1_13DUMPTIME_HASHERKS1_EEXadL_ZNS1_15DUMPTIME_EQUALSES8_S8_EEE7iterateI33CopyLambdaProxyClassInfoToArchiveEEvPT_.exit

17:                                               ; preds = %.lr.ph.i.i
  %18 = getelementptr inbounds i8, ptr %.01118.i.i, i64 64
  %19 = add nsw i32 %.117.i.i, -1
  %.011.i.i = load ptr, ptr %18, align 8
  %.not.i.i = icmp eq ptr %.011.i.i, null
  br i1 %.not.i.i, label %._crit_edge.i.i, label %.lr.ph.i.i, !llvm.loop !29

._crit_edge.i.i:                                  ; preds = %17, %.preheader.i.i
  %.1.lcssa.i.i = phi i32 [ %.01219.i.i, %.preheader.i.i ], [ %19, %17 ]
  %.0.add.i.i = add nuw nsw i64 %.0.idx20.i.i, 8
  %20 = icmp sgt i32 %.1.lcssa.i.i, 0
  %21 = icmp ult i64 %.0.idx20.i.i, 1088
  %or.cond.i.i = and i1 %21, %20
  br i1 %or.cond.i.i, label %.preheader.i.i, label %_ZNK21ResourceHashtableBaseI29FixedResourceHashtableStorageILj137E19LambdaProxyClassKey28DumpTimeLambdaProxyClassInfoES1_S2_LN6AnyObj15allocation_typeE2EL8MEMFLAGS13EXadL_ZNS1_13DUMPTIME_HASHERKS1_EEXadL_ZNS1_15DUMPTIME_EQUALSES8_S8_EEE7iterateI33CopyLambdaProxyClassInfoToArchiveEEvPT_.exit, !llvm.loop !30

_ZNK21ResourceHashtableBaseI29FixedResourceHashtableStorageILj137E19LambdaProxyClassKey28DumpTimeLambdaProxyClassInfoES1_S2_LN6AnyObj15allocation_typeE2EL8MEMFLAGS13EXadL_ZNS1_13DUMPTIME_HASHERKS1_EEXadL_ZNS1_15DUMPTIME_EQUALSES8_S8_EEE7iterateI33CopyLambdaProxyClassInfoToArchiveEEvPT_.exit: ; preds = %._crit_edge.i.i, %.lr.ph.i.i, %1
  call void @_ZN22CompactHashtableWriter4dumpEP22SimpleCompactHashtablePKc(ptr noundef nonnull align 8 dereferenceable(56) %3, ptr noundef nonnull %0, ptr noundef nonnull @.str.53) #18
  call void @_ZN22CompactHashtableWriterD1Ev(ptr noundef nonnull align 8 dereferenceable(56) %3) #18
  ret void
}